; ModuleID = 'source-C-CXX/57/1251.c'
source_filename = "source-C-CXX/57/1251.c"
target datalayout = "e-m:e-p270:32:32-p271:32:32-p272:64:64-i64:64-f80:128-n8:16:32:64-S128"
target triple = "x86_64-pc-linux-gnu"

@.str = private unnamed_addr constant [5 x i8] c"%d%c\00", align 1
@.str.1 = private unnamed_addr constant [4 x i8] c"%d\0A\00", align 1

; Function Attrs: nounwind sspstrong uwtable
define dso_local i32 @main() local_unnamed_addr #0 {
  %1 = alloca i32, align 4
  %2 = alloca [100 x i8], align 16
  %3 = alloca i8, align 1
  %4 = bitcast i32* %1 to i8*
  call void @llvm.lifetime.start.p0i8(i64 4, i8* nonnull %4) #5
  %5 = getelementptr inbounds [100 x i8], [100 x i8]* %2, i64 0, i64 0
  call void @llvm.lifetime.start.p0i8(i64 100, i8* nonnull %5) #5
  call void @llvm.lifetime.start.p0i8(i64 1, i8* nonnull %3) #5
  %6 = call i32 (i8*, ...) @__isoc99_scanf(i8* getelementptr inbounds ([5 x i8], [5 x i8]* @.str, i64 0, i64 0), i32* nonnull %1, i8* nonnull %3)
  %7 = getelementptr inbounds [100 x i8], [100 x i8]* %2, i64 0, i64 1
  %8 = load i32, i32* %1, align 4, !tbaa !5
  %9 = add nsw i32 %8, -1
  store i32 %9, i32* %1, align 4, !tbaa !5
  %10 = icmp eq i32 %8, 0
  br i1 %10, label %44, label %11

11:                                               ; preds = %0, %38
  %12 = call i32 (i8*, ...) bitcast (i32 (...)* @gets to i32 (i8*, ...)*)(i8* nonnull %5) #5
  %13 = load i8, i8* %5, align 16, !tbaa !9
  %14 = icmp ne i8 %13, 95
  %15 = and i8 %13, -33
  %16 = add i8 %15, -65
  %17 = icmp ugt i8 %16, 25
  %18 = and i1 %14, %17
  br i1 %18, label %38, label %19

19:                                               ; preds = %11
  %20 = load i8, i8* %7, align 1, !tbaa !9
  %21 = icmp eq i8 %20, 0
  br i1 %21, label %38, label %26

22:                                               ; preds = %26
  %23 = getelementptr inbounds [100 x i8], [100 x i8]* %2, i64 0, i64 %37
  %24 = load i8, i8* %23, align 1, !tbaa !9
  %25 = icmp eq i8 %24, 0
  br i1 %25, label %38, label %26, !llvm.loop !10

26:                                               ; preds = %19, %22
  %27 = phi i64 [ %37, %22 ], [ 1, %19 ]
  %28 = phi i8 [ %24, %22 ], [ %20, %19 ]
  %29 = icmp eq i8 %28, 95
  %30 = and i8 %28, -33
  %31 = add i8 %30, -65
  %32 = icmp ult i8 %31, 26
  %33 = or i1 %29, %32
  %34 = add i8 %28, -48
  %35 = icmp ult i8 %34, 10
  %36 = or i1 %33, %35
  %37 = add nuw i64 %27, 1
  br i1 %36, label %22, label %38

38:                                               ; preds = %26, %22, %19, %11
  %39 = phi i32 [ 0, %11 ], [ 1, %19 ], [ 0, %26 ], [ 1, %22 ]
  %40 = call i32 (i8*, ...) @printf(i8* nonnull dereferenceable(1) getelementptr inbounds ([4 x i8], [4 x i8]* @.str.1, i64 0, i64 0), i32 %39)
  %41 = load i32, i32* %1, align 4, !tbaa !5
  %42 = add nsw i32 %41, -1
  store i32 %42, i32* %1, align 4, !tbaa !5
  %43 = icmp eq i32 %41, 0
  br i1 %43, label %44, label %11, !llvm.loop !12

44:                                               ; preds = %38, %0
  call void @llvm.lifetime.end.p0i8(i64 1, i8* nonnull %3) #5
  call void @llvm.lifetime.end.p0i8(i64 100, i8* nonnull %5) #5
  call void @llvm.lifetime.end.p0i8(i64 4, i8* nonnull %4) #5
  ret i32 0
}

; Function Attrs: argmemonly mustprogress nofree nosync nounwind willreturn
declare void @llvm.lifetime.start.p0i8(i64 immarg, i8* nocapture) #1

; Function Attrs: nofree nounwind
declare noundef i32 @__isoc99_scanf(i8* nocapture noundef readonly, ...) local_unnamed_addr #2

declare i32 @gets(...) local_unnamed_addr #3

; Function Attrs: mustprogress nofree norecurse nosync nounwind readnone sspstrong uwtable willreturn
define dso_local i32 @f(i8 signext %0) local_unnamed_addr #4 {
  %2 = icmp eq i8 %0, 95
  %3 = and i8 %0, -33
  %4 = add i8 %3, -65
  %5 = icmp ult i8 %4, 26
  %6 = or i1 %5, %2
  %7 = zext i1 %6 to i32
  ret i32 %7
}

; Function Attrs: nofree nounwind
declare noundef i32 @printf(i8* nocapture noundef readonly, ...) local_unnamed_addr #2

; Function Attrs: argmemonly mustprogress nofree nosync nounwind willreturn
declare void @llvm.lifetime.end.p0i8(i64 immarg, i8* nocapture) #1


!llvm.module.flags = !{!0, !1, !2, !3}
!llvm.ident = !{!4}

!0 = !{i32 1, !"wchar_size", i32 4}
!1 = !{i32 7, !"PIC Level", i32 2}
!2 = !{i32 7, !"PIE Level", i32 2}
!3 = !{i32 7, !"uwtable", i32 1}
!4 = !{!"clang version 13.0.0"}
!5 = !{!6, !6, i64 0}
!6 = !{!"int", !7, i64 0}
!7 = !{!"omnipotent char", !8, i64 0}
!8 = !{!"Simple C/C++ TBAA"}
!9 = !{!7, !7, i64 0}
!10 = distinct !{!10, !11}
!11 = !{!"llvm.loop.mustprogress"}
!12 = distinct !{!12, !11}
